; Function Attrs: mustprogress uwtable
define void @_ZN3zmq7epoll_t13reset_polloutEPv(ptr noundef nonnull align 8 dereferenceable(224) %this, ptr noundef %handle_) local_unnamed_addr #0 align 2 {
entry:
  tail call void @_ZNK3zmq20worker_poller_base_t12check_threadEv(ptr noundef nonnull align 8 dereferenceable(192) %this)
  %ev = getelementptr inbounds i8, ptr %handle_, i64 4
  %0 = load i32, ptr %ev, align 4
  %and = and i32 %0, -5
  store i32 %and, ptr %ev, align 4
  %_epoll_fd = getelementptr inbounds i8, ptr %this, i64 192
  %1 = load i32, ptr %_epoll_fd, align 8
  %2 = load i32, ptr %handle_, align 8
  %call = tail call i32 @epoll_ctl(i32 noundef %1, i32 noundef 3, i32 noundef %2, ptr noundef nonnull %ev) #16
  %cmp.not = icmp eq i32 %call, -1
  br i1 %cmp.not, label %if.then, label %do.end

if.then:                                          ; preds = %entry
  %call3 = tail call ptr @__errno_location() #17
  %3 = load i32, ptr %call3, align 4
  %call4 = tail call ptr @strerror(i32 noundef %3) #16
  %4 = load ptr, ptr @stderr, align 8
  %call5 = tail call i32 (ptr, ptr, ...) @fprintf(ptr noundef %4, ptr noundef nonnull @.str, ptr noundef %call4, ptr noundef nonnull @.str.1, i32 noundef 127) #18
  %5 = load ptr, ptr @stderr, align 8
  %call6 = tail call i32 @fflush(ptr noundef %5)
  tail call void @_ZN3zmq9zmq_abortEPKc(ptr noundef %call4)
  br label %do.end

do.end:                                           ; preds = %entry, %if.then
  ret void
}